; Function Attrs: mustprogress uwtable
define noundef double @_ZNK8QuantLib12SyntheticCDO18fairUpfrontPremiumEv(ptr noundef nonnull align 8 dereferenceable(264) %this) local_unnamed_addr #8 align 2 {
entry:
  %vtable = load ptr, ptr %this, align 8, !tbaa !33
  %vfn = getelementptr inbounds i8, ptr %vtable, i64 24
  %0 = load ptr, ptr %vfn, align 8
  tail call void %0(ptr noundef nonnull align 8 dereferenceable(104) %this)
  %protectionValue_ = getelementptr inbounds nuw i8, ptr %this, i64 208
  %1 = load double, ptr %protectionValue_, align 8, !tbaa !148
  %premiumValue_ = getelementptr inbounds nuw i8, ptr %this, i64 200
  %2 = load double, ptr %premiumValue_, align 8, !tbaa !147
  %sub = fsub double %1, %2
  %remainingNotional_ = getelementptr inbounds nuw i8, ptr %this, i64 224
  %3 = load double, ptr %remainingNotional_, align 8, !tbaa !150
  %div = fdiv double %sub, %3
  ret double %div
}